Certificate:
    Data:
        Version: 3 (0x2)
        Serial Number: 410 (0x19a)
        Signature Algorithm: sha256WithRSAEncryption
        Issuer: C=US, O=U.S. Government, OU=FPKI, CN=Federal Common Policy CA
        Validity
            Not Before: Dec  9 19:55:24 2010 GMT
            Not After : Dec  9 19:49:04 2020 GMT
        Subject: C=US, O=Betrusted US Inc, OU=SSP, OU=Betrusted Production SSP CA A1, CN=Betrusted Production SSP CA A1
        Subject Public Key Info:
            Public Key Algorithm: rsaEncryption
                Public-Key: (2048 bit)
                Modulus:
                    00:9f:68:0f:4c:40:4a:b6:fa:3b:26:76:8e:5c:4e:
                    c5:60:79:4f:60:ee:6a:5c:25:63:6e:a7:bd:2d:e7:
                    62:2e:8d:de:7d:98:2c:98:51:0a:e2:8b:65:2f:a9:
                    54:0b:d3:c9:02:e2:2d:79:ea:e2:2e:43:af:f7:e9:
                    a8:9a:ed:3c:c5:7d:45:c8:97:58:01:69:bf:9a:86:
                    11:2d:55:0c:88:2b:83:80:95:4b:a7:0e:c5:82:64:
                    21:ec:50:41:01:6e:c8:1d:e0:6f:09:8c:d4:53:83:
                    b3:87:d5:5d:62:ec:4a:91:c0:39:b3:3f:47:80:52:
                    fb:45:4c:9b:94:c0:0f:7a:5e:fd:24:1a:4e:74:bb:
                    d8:12:00:40:f8:ed:b9:fd:55:4b:c9:ea:83:db:00:
                    90:86:45:a4:10:8b:16:14:31:b5:8b:a1:63:75:52:
                    bf:8b:5a:2d:e2:45:23:f2:71:d2:fe:8f:6e:88:87:
                    9b:60:af:bc:94:f8:34:94:ad:23:1e:12:33:a3:17:
                    93:18:3c:7d:c2:25:66:91:9f:c0:dc:54:6d:ad:a9:
                    8c:10:f4:10:68:bd:9d:ff:f9:18:e2:d2:26:99:75:
                    b9:e3:58:40:9f:d4:96:cb:d5:2b:e7:6d:ed:3b:10:
                    e9:b0:d1:35:55:a3:7e:ed:15:38:62:de:02:c5:fe:
                    97:af
                Exponent: 65537 (0x10001)
        X509v3 extensions:
            X509v3 Basic Constraints: critical
                CA:TRUE
            X509v3 Certificate Policies: 
                Policy: 2.16.840.1.101.3.2.1.3.6
                Policy: 2.16.840.1.101.3.2.1.3.7
                Policy: 2.16.840.1.101.3.2.1.3.8
                Policy: 2.16.840.1.101.3.2.1.3.13
                Policy: 2.16.840.1.101.3.2.1.3.17

            Authority Information Access: 
                CA Issuers - URI:http://http.fpki.gov/fcpca/caCertsIssuedTofcpca.p7c
                CA Issuers - URI:ldap://ldap.fpki.gov/cn=Federal%20Common%20Policy%20CA,ou=FPKI,o=U.S.%20Government,c=US?cACertificate;binary,crossCertificatePair;binary

            Subject Information Access: 
                CA Repository - URI:http://sia1.ssp-strong-id.net/CA/SSP-CA-A1-SIA.p7c
                CA Repository - URI:ldap://dir1.ssp-strong-id.net/cn=Betrusted%20Production%20SSP%20CA%20A1,ou=Betrusted%20Production%20SSP%20CA%20A1,ou=SSP,o=Betrusted%20US%20Inc,c=US?cACertificate;binary,crossCertificatePair;binary

            X509v3 Key Usage: critical
                Digital Signature, Non Repudiation, Certificate Sign, CRL Sign
            X509v3 Authority Key Identifier: 
                keyid:AD:0C:7A:75:5C:E5:F3:98:C4:79:98:0E:AC:28:FD:97:F4:E7:02:FC

            X509v3 CRL Distribution Points: 

                Full Name:
                  URI:http://http.fpki.gov/fcpca/fcpca.crl

                Full Name:
                  URI:ldap://ldap.fpki.gov/cn%3dFederal%20Common%20Policy%20CA,ou%3dFPKI,o%3dU.S.%20Government,c%3dUS?certificateRevocationList

            X509v3 Subject Key Identifier: 
                BB:A4:E9:B9:83:0B:32:72:1A:21:0E:AA:CF:45:1D:B7:16:23:C8:0D
    Signature Algorithm: sha256WithRSAEncryption
        af:a4:93:ed:5b:b0:9b:95:b2:97:c0:fa:5b:77:70:9f:65:f0:
        02:22:f1:16:b8:ac:40:89:d8:da:95:75:1f:4a:e1:07:5f:34:
        e9:a0:d3:30:16:db:26:e9:bc:9d:d9:0f:cc:bb:bd:5c:e4:cd:
        d9:17:c0:9b:06:31:93:0b:29:82:bd:dd:de:08:fd:38:ec:33:
        26:4c:40:54:96:a3:d7:d5:4f:19:fd:12:5f:62:bc:87:73:3b:
        e4:76:ee:d6:0a:f0:b2:0a:84:a4:8e:d1:0d:48:ea:4c:ad:cd:
        e5:e2:59:3c:29:5c:71:f4:61:25:05:a4:b3:4e:af:7d:20:65:
        4b:2e:a1:68:69:83:fb:1b:ed:57:d0:b3:e4:f6:7c:dc:d7:45:
        1c:37:9a:ac:1b:a9:07:31:dd:67:dd:7c:b9:9f:c0:26:42:e2:
        07:22:af:0d:4d:d1:27:e8:d8:6a:a0:21:cd:7f:3b:31:0b:f7:
        7b:49:87:6d:12:5c:fc:09:2e:41:76:58:de:24:1d:49:91:d4:
        c4:04:d1:7f:32:43:e5:98:b7:a8:25:e7:5a:96:28:d5:e8:40:
        c9:be:4d:3d:96:dd:8f:2d:10:e4:06:5d:df:a7:94:21:e2:c0:
        a4:32:ac:f0:8b:94:bf:84:98:5a:b2:20:df:a5:96:db:e6:03:
        11:fa:93:53
-----BEGIN CERTIFICATE-----
MIIG6DCCBdCgAwIBAgICAZowDQYJKoZIhvcNAQELBQAwWTELMAkGA1UEBhMCVVMx
GDAWBgNVBAoTD1UuUy4gR292ZXJubWVudDENMAsGA1UECxMERlBLSTEhMB8GA1UE
AxMYRmVkZXJhbCBDb21tb24gUG9saWN5IENBMB4XDTEwMTIwOTE5NTUyNFoXDTIw
MTIwOTE5NDkwNFowgYgxCzAJBgNVBAYTAlVTMRkwFwYDVQQKExBCZXRydXN0ZWQg
VVMgSW5jMQwwCgYDVQQLEwNTU1AxJzAlBgNVBAsTHkJldHJ1c3RlZCBQcm9kdWN0
aW9uIFNTUCBDQSBBMTEnMCUGA1UEAxMeQmV0cnVzdGVkIFByb2R1Y3Rpb24gU1NQ
IENBIEExMIIBIjANBgkqhkiG9w0BAQEFAAOCAQ8AMIIBCgKCAQEAn2gPTEBKtvo7
JnaOXE7FYHlPYO5qXCVjbqe9LediLo3efZgsmFEK4otlL6lUC9PJAuIteeriLkOv
9+momu08xX1FyJdYAWm/moYRLVUMiCuDgJVLpw7FgmQh7FBBAW7IHeBvCYzUU4Oz
h9VdYuxKkcA5sz9HgFL7RUyblMAPel79JBpOdLvYEgBA+O25/VVLyeqD2wCQhkWk
EIsWFDG1i6FjdVK/i1ot4kUj8nHS/o9uiIebYK+8lPg0lK0jHhIzoxeTGDx9wiVm
kZ/A3FRtramMEPQQaL2d//kY4tImmXW541hAn9SWy9Ur523tOxDpsNE1VaN+7RU4
Yt4Cxf6XrwIDAQABo4IDiDCCA4QwDwYDVR0TAQH/BAUwAwEB/zBPBgNVHSAESDBG
MAwGCmCGSAFlAwIBAwYwDAYKYIZIAWUDAgEDBzAMBgpghkgBZQMCAQMIMAwGCmCG
SAFlAwIBAw0wDAYKYIZIAWUDAgEDETCB6QYIKwYBBQUHAQEEgdwwgdkwPwYIKwYB
BQUHMAKGM2h0dHA6Ly9odHRwLmZwa2kuZ292L2ZjcGNhL2NhQ2VydHNJc3N1ZWRU
b2ZjcGNhLnA3YzCBlQYIKwYBBQUHMAKGgYhsZGFwOi8vbGRhcC5mcGtpLmdvdi9j
bj1GZWRlcmFsJTIwQ29tbW9uJTIwUG9saWN5JTIwQ0Esb3U9RlBLSSxvPVUuUy4l
MjBHb3Zlcm5tZW50LGM9VVM/Y0FDZXJ0aWZpY2F0ZTtiaW5hcnksY3Jvc3NDZXJ0
aWZpY2F0ZVBhaXI7YmluYXJ5MIIBJwYIKwYBBQUHAQsEggEZMIIBFTA+BggrBgEF
BQcwBYYyaHR0cDovL3NpYTEuc3NwLXN0cm9uZy1pZC5uZXQvQ0EvU1NQLUNBLUEx
LVNJQS5wN2MwgdIGCCsGAQUFBzAFhoHFbGRhcDovL2RpcjEuc3NwLXN0cm9uZy1p
ZC5uZXQvY249QmV0cnVzdGVkJTIwUHJvZHVjdGlvbiUyMFNTUCUyMENBJTIwQTEs
b3U9QmV0cnVzdGVkJTIwUHJvZHVjdGlvbiUyMFNTUCUyMENBJTIwQTEsb3U9U1NQ
LG89QmV0cnVzdGVkJTIwVVMlMjBJbmMsYz1VUz9jQUNlcnRpZmljYXRlO2JpbmFy
eSxjcm9zc0NlcnRpZmljYXRlUGFpcjtiaW5hcnkwDgYDVR0PAQH/BAQDAgHGMB8G
A1UdIwQYMBaAFK0MenVc5fOYxHmYDqwo/Zf05wL8MIG4BgNVHR8EgbAwga0wKqAo
oCaGJGh0dHA6Ly9odHRwLmZwa2kuZ292L2ZjcGNhL2ZjcGNhLmNybDB/oH2ge4Z5
bGRhcDovL2xkYXAuZnBraS5nb3YvY24lM2RGZWRlcmFsJTIwQ29tbW9uJTIwUG9s
aWN5JTIwQ0Esb3UlM2RGUEtJLG8lM2RVLlMuJTIwR292ZXJubWVudCxjJTNkVVM/
Y2VydGlmaWNhdGVSZXZvY2F0aW9uTGlzdDAdBgNVHQ4EFgQUu6TpuYMLMnIaIQ6q
z0UdtxYjyA0wDQYJKoZIhvcNAQELBQADggEBAK+kk+1bsJuVspfA+lt3cJ9l8AIi
8Ra4rECJ2NqVdR9K4QdfNOmg0zAW2ybpvJ3ZD8y7vVzkzdkXwJsGMZMLKYK93d4I
/TjsMyZMQFSWo9fVTxn9El9ivIdzO+R27tYK8LIKhKSO0Q1I6kytzeXiWTwpXHH0
YSUFpLNOr30gZUsuoWhpg/sb7VfQs+T2fNzXRRw3mqwbqQcx3WfdfLmfwCZC4gci
rw1N0Sfo2GqgIc1/OzEL93tJh20SXPwJLkF2WN4kHUmR1MQE0X8yQ+WYt6gl51qW
KNXoQMm+TT2W3Y8tEOQGXd+nlCHiwKQyrPCLlL+EmFqyIN+lltvmAxH6k1M=
-----END CERTIFICATE-----
