Certificate:
    Data:
        Version: 3 (0x2)
        Serial Number: 514 (0x202)
        Signature Algorithm: sha256WithRSAEncryption
        Issuer: C=US, O=U.S. Government, OU=FPKI, CN=Federal Common Policy CA
        Validity
            Not Before: Dec 15 21:12:26 2010 GMT
            Not After : Dec 15 21:10:27 2020 GMT
        Subject: C=US, O=Entrust, OU=Certification Authorities, OU=Entrust Managed Services Root CA
        Subject Public Key Info:
            Public Key Algorithm: rsaEncryption
                Public-Key: (2048 bit)
                Modulus:
                    00:b6:7b:73:d3:fe:d1:24:65:57:65:ae:a2:4a:ab:
                    39:68:bc:ac:f8:23:41:06:9c:3f:f8:ee:68:44:e4:
                    3b:ad:22:38:b6:7c:f6:58:fc:62:a8:f6:82:d5:d7:
                    40:bc:a4:56:71:bd:be:69:4b:d8:30:97:d1:91:da:
                    6c:b3:dc:41:1f:a9:d1:67:99:7f:97:09:10:cd:f8:
                    13:b0:e4:2d:2a:51:6f:fa:b4:f6:29:57:54:15:74:
                    62:92:9f:c2:01:40:e4:57:28:82:ee:23:ef:8b:c9:
                    07:80:d2:b8:69:88:14:6d:f1:b0:c6:6c:2b:4b:be:
                    e7:f5:cb:01:dc:db:f9:6b:58:e3:a4:c2:50:33:c0:
                    97:75:e4:3e:9d:9d:b0:52:d8:8c:20:c3:07:25:15:
                    70:ad:39:ff:db:9f:4e:75:a7:cb:8f:ff:c6:3b:fa:
                    c9:a2:50:0c:ec:4e:0f:36:6d:0e:e9:87:71:d3:a8:
                    73:1e:4c:b1:06:3d:e3:41:ad:5d:c2:b7:71:17:3b:
                    c8:93:0a:1d:54:0f:72:55:7f:e2:d0:55:6c:f2:f7:
                    a8:98:c6:6e:16:20:4f:b1:2f:9e:1f:88:b1:00:2a:
                    f8:b7:f9:10:93:69:65:03:a7:29:58:28:6b:2a:bb:
                    bc:bd:73:47:7c:9f:f8:3b:f3:44:88:b5:65:28:80:
                    bb:a5
                Exponent: 65537 (0x10001)
        X509v3 extensions:
            X509v3 Basic Constraints: critical
                CA:TRUE
            X509v3 Certificate Policies: 
                Policy: 2.16.840.1.101.3.2.1.3.6
                Policy: 2.16.840.1.101.3.2.1.3.7
                Policy: 2.16.840.1.101.3.2.1.3.8
                Policy: 2.16.840.1.101.3.2.1.3.13
                Policy: 2.16.840.1.101.3.2.1.3.17

            Authority Information Access: 
                CA Issuers - URI:http://http.fpki.gov/fcpca/caCertsIssuedTofcpca.p7c
                CA Issuers - URI:ldap://ldap.fpki.gov/cn=Federal%20Common%20Policy%20CA,ou=FPKI,o=U.S.%20Government,c=US?cACertificate;binary,crossCertificatePair;binary

            Subject Information Access: 
                CA Repository - URI:http://rootweb.managed.entrust.com/SIA/CertsIssuedByEMSRootCA.p7c
                CA Repository - URI:ldap://rootdir.managed.entrust.com/ou=Entrust%20Managed%20Services%20Root%20CA,ou=Certification%20Authorities,o=Entrust,c=US?cACertificate;binary,crossCertificatePair;binary

            X509v3 Key Usage: critical
                Certificate Sign, CRL Sign
            X509v3 Authority Key Identifier: 
                keyid:AD:0C:7A:75:5C:E5:F3:98:C4:79:98:0E:AC:28:FD:97:F4:E7:02:FC

            X509v3 CRL Distribution Points: 

                Full Name:
                  URI:http://http.fpki.gov/fcpca/fcpca.crl

                Full Name:
                  URI:ldap://ldap.fpki.gov/cn%3dFederal%20Common%20Policy%20CA,ou%3dFPKI,o%3dU.S.%20Government,c%3dUS?certificateRevocationList

            X509v3 Subject Key Identifier: 
                9C:62:66:26:9D:71:B6:A7:75:53:64:E1:AC:B1:C7:25:3C:44:5D:0D
    Signature Algorithm: sha256WithRSAEncryption
        5d:55:9f:04:70:5e:ac:3c:71:72:f5:71:38:be:a2:81:0a:0e:
        51:50:24:6e:80:04:6a:64:f7:04:0c:30:b6:4d:09:66:36:4a:
        58:13:b9:b0:8b:b1:d9:83:5a:cb:3f:6e:3c:24:0d:9d:f6:5f:
        9f:d2:16:78:93:63:33:91:fd:1f:d7:42:50:9d:54:2a:d1:36:
        e1:1d:4e:d0:7b:cf:d1:8e:ef:35:4b:ba:cb:9c:e7:74:fa:c9:
        4c:fa:6e:da:4a:d4:4b:39:a2:42:c9:3f:4b:71:bb:0a:0c:28:
        1c:ac:49:32:7b:4c:7b:a6:9a:e1:9a:0e:41:0e:c3:99:9d:97:
        28:31:d0:28:2e:94:d1:eb:21:58:87:b3:10:d7:20:4b:15:a4:
        20:cd:31:a3:21:4a:09:4e:df:5a:1a:4b:e8:20:f8:63:a4:16:
        8e:8f:9a:d3:85:96:02:cb:e0:ae:8d:3b:d5:23:af:7d:52:26:
        ac:55:07:d2:96:3d:fd:6c:e5:08:8f:ef:f5:4a:91:4e:d8:09:
        18:7b:59:b7:48:e0:19:9a:c3:b2:95:4f:24:d4:e5:a4:9c:18:
        b7:bd:db:b7:da:c8:ed:68:9d:9f:f8:c9:1c:b4:e2:af:bb:40:
        99:9b:71:96:6f:c3:60:f7:df:12:66:5e:5a:bf:50:68:de:dd:
        a0:66:93:13
-----BEGIN CERTIFICATE-----
MIIGxDCCBaygAwIBAgICAgIwDQYJKoZIhvcNAQELBQAwWTELMAkGA1UEBhMCVVMx
GDAWBgNVBAoTD1UuUy4gR292ZXJubWVudDENMAsGA1UECxMERlBLSTEhMB8GA1UE
AxMYRmVkZXJhbCBDb21tb24gUG9saWN5IENBMB4XDTEwMTIxNTIxMTIyNloXDTIw
MTIxNTIxMTAyN1owbjELMAkGA1UEBhMCVVMxEDAOBgNVBAoTB0VudHJ1c3QxIjAg
BgNVBAsTGUNlcnRpZmljYXRpb24gQXV0aG9yaXRpZXMxKTAnBgNVBAsTIEVudHJ1
c3QgTWFuYWdlZCBTZXJ2aWNlcyBSb290IENBMIIBIjANBgkqhkiG9w0BAQEFAAOC
AQ8AMIIBCgKCAQEAtntz0/7RJGVXZa6iSqs5aLys+CNBBpw/+O5oROQ7rSI4tnz2
WPxiqPaC1ddAvKRWcb2+aUvYMJfRkdpss9xBH6nRZ5l/lwkQzfgTsOQtKlFv+rT2
KVdUFXRikp/CAUDkVyiC7iPvi8kHgNK4aYgUbfGwxmwrS77n9csB3Nv5a1jjpMJQ
M8CXdeQ+nZ2wUtiMIMMHJRVwrTn/259OdafLj//GO/rJolAM7E4PNm0O6Ydx06hz
HkyxBj3jQa1dwrdxFzvIkwodVA9yVX/i0FVs8veomMZuFiBPsS+eH4ixACr4t/kQ
k2llA6cpWChrKru8vXNHfJ/4O/NEiLVlKIC7pQIDAQABo4IDfzCCA3swDwYDVR0T
AQH/BAUwAwEB/zBPBgNVHSAESDBGMAwGCmCGSAFlAwIBAwYwDAYKYIZIAWUDAgED
BzAMBgpghkgBZQMCAQMIMAwGCmCGSAFlAwIBAw0wDAYKYIZIAWUDAgEDETCB6QYI
KwYBBQUHAQEEgdwwgdkwPwYIKwYBBQUHMAKGM2h0dHA6Ly9odHRwLmZwa2kuZ292
L2ZjcGNhL2NhQ2VydHNJc3N1ZWRUb2ZjcGNhLnA3YzCBlQYIKwYBBQUHMAKGgYhs
ZGFwOi8vbGRhcC5mcGtpLmdvdi9jbj1GZWRlcmFsJTIwQ29tbW9uJTIwUG9saWN5
JTIwQ0Esb3U9RlBLSSxvPVUuUy4lMjBHb3Zlcm5tZW50LGM9VVM/Y0FDZXJ0aWZp
Y2F0ZTtiaW5hcnksY3Jvc3NDZXJ0aWZpY2F0ZVBhaXI7YmluYXJ5MIIBHgYIKwYB
BQUHAQsEggEQMIIBDDBNBggrBgEFBQcwBYZBaHR0cDovL3Jvb3R3ZWIubWFuYWdl
ZC5lbnRydXN0LmNvbS9TSUEvQ2VydHNJc3N1ZWRCeUVNU1Jvb3RDQS5wN2MwgboG
CCsGAQUFBzAFhoGtbGRhcDovL3Jvb3RkaXIubWFuYWdlZC5lbnRydXN0LmNvbS9v
dT1FbnRydXN0JTIwTWFuYWdlZCUyMFNlcnZpY2VzJTIwUm9vdCUyMENBLG91PUNl
cnRpZmljYXRpb24lMjBBdXRob3JpdGllcyxvPUVudHJ1c3QsYz1VUz9jQUNlcnRp
ZmljYXRlO2JpbmFyeSxjcm9zc0NlcnRpZmljYXRlUGFpcjtiaW5hcnkwDgYDVR0P
AQH/BAQDAgEGMB8GA1UdIwQYMBaAFK0MenVc5fOYxHmYDqwo/Zf05wL8MIG4BgNV
HR8EgbAwga0wKqAooCaGJGh0dHA6Ly9odHRwLmZwa2kuZ292L2ZjcGNhL2ZjcGNh
LmNybDB/oH2ge4Z5bGRhcDovL2xkYXAuZnBraS5nb3YvY24lM2RGZWRlcmFsJTIw
Q29tbW9uJTIwUG9saWN5JTIwQ0Esb3UlM2RGUEtJLG8lM2RVLlMuJTIwR292ZXJu
bWVudCxjJTNkVVM/Y2VydGlmaWNhdGVSZXZvY2F0aW9uTGlzdDAdBgNVHQ4EFgQU
nGJmJp1xtqd1U2ThrLHHJTxEXQ0wDQYJKoZIhvcNAQELBQADggEBAF1VnwRwXqw8
cXL1cTi+ooEKDlFQJG6ABGpk9wQMMLZNCWY2SlgTubCLsdmDWss/bjwkDZ32X5/S
FniTYzOR/R/XQlCdVCrRNuEdTtB7z9GO7zVLusuc53T6yUz6btpK1Es5okLJP0tx
uwoMKBysSTJ7THummuGaDkEOw5mdlygx0CgulNHrIViHsxDXIEsVpCDNMaMhSglO
31oaS+gg+GOkFo6PmtOFlgLL4K6NO9Ujr31SJqxVB9KWPf1s5QiP7/VKkU7YCRh7
WbdI4Bmaw7KVTyTU5aScGLe927fayO1onZ/4yRy04q+7QJmbcZZvw2D33xJmXlq/
UGje3aBmkxM=
-----END CERTIFICATE-----
