Certificate:
    Data:
        Version: 3 (0x2)
        Serial Number: 3627 (0xe2b)
        Signature Algorithm: sha1WithRSAEncryption
        Issuer: C=US, O=Betrusted US Inc, OU=SSP, OU=Betrusted Production SSP CA A1, CN=Betrusted Production SSP CA A1
        Validity
            Not Before: Jul  6 16:07:08 2007 GMT
            Not After : Jul  6 16:05:18 2017 GMT
        Subject: DC=gov, DC=hhs, C=US, O=U.S. Government, OU=HHS, CN=HHS-SSP-CA-B7
        Subject Public Key Info:
            Public Key Algorithm: rsaEncryption
                Public-Key: (2048 bit)
                Modulus:
                    00:f2:bd:32:4e:64:5f:60:45:00:1b:49:7f:64:de:
                    69:11:5a:1d:48:7e:e6:a4:a0:10:97:e7:d6:c2:22:
                    e2:19:95:db:06:d0:ea:fc:a5:8a:52:59:84:20:e6:
                    6f:f8:96:35:c5:bc:7b:23:74:f2:41:52:32:b1:16:
                    64:0d:15:9a:0b:8d:b5:93:fc:51:22:a1:ed:ff:19:
                    ea:93:09:87:ce:31:11:6d:7d:f3:1b:18:73:b1:83:
                    c4:82:90:b9:45:0e:19:77:3e:22:aa:db:7b:72:c9:
                    13:4c:87:44:68:05:fe:d5:1b:cc:ef:83:f6:6d:df:
                    20:1d:57:54:c2:11:70:0b:64:30:bd:5e:9a:1e:81:
                    68:38:df:7d:a9:ce:6b:5e:16:8c:2d:8d:0b:19:3d:
                    b4:83:15:e5:f3:de:7d:da:cc:11:3d:4c:c4:ff:e4:
                    bf:ad:41:8b:5f:61:6f:c4:78:6f:50:08:cb:35:ef:
                    7d:7b:8f:6e:d3:5a:23:99:c4:84:b7:12:16:dc:a4:
                    c8:8d:c5:40:af:8b:4f:3e:f3:a8:0a:63:41:f0:4e:
                    67:c8:67:b6:ce:26:8c:76:c1:20:7c:07:7e:c0:70:
                    9a:e8:a3:e0:a7:46:4a:a6:0d:9d:32:c5:49:f3:5e:
                    3d:8b:ce:f9:de:af:c0:29:ba:20:8c:5b:59:56:c3:
                    d2:57
                Exponent: 65537 (0x10001)
        X509v3 extensions:
            X509v3 Basic Constraints: critical
                CA:TRUE
            X509v3 Certificate Policies: 
                Policy: 2.16.840.1.101.3.2.1.3.7
                Policy: 2.16.840.1.101.3.2.1.3.8
                Policy: 2.16.840.1.101.3.2.1.3.13
                Policy: 2.16.840.1.101.3.2.1.3.17
                Policy: 2.16.840.1.101.3.2.1.3.6

            Authority Information Access: 
                CA Issuers - URI:http://aia1.ssp-strong-id.net/CA/SSP-CA-A1.p7c
                CA Issuers - URI:ldap://dir1.ssp-strong-id.net/cn=Betrusted%20Production%20SSP%20CA%20A1,ou=Betrusted%20Production%20SSP%20CA%20A1,ou=SSP,o=Betrusted%20US%20Inc,c=US?cACertificate
                OCSP - URI:http://ocsp1.ssp-strong-id.net/SSP-CA-A1/

            X509v3 Key Usage: critical
                Digital Signature, Non Repudiation, Certificate Sign, CRL Sign
            X509v3 Authority Key Identifier: 
                keyid:BB:A4:E9:B9:83:0B:32:72:1A:21:0E:AA:CF:45:1D:B7:16:23:C8:0D

            X509v3 CRL Distribution Points: 

                Full Name:
                  URI:http://cdp1.ssp-strong-id.net/CDP/SSP-CA-A1.crl

                Full Name:
                  URI:ldap://dir1.ssp-strong-id.net/cn%3dBetrusted%20Production%20SSP%20CA%20A1,ou%3dBetrusted%20Production%20SSP%20CA%20A1,ou%3dSSP,o%3dBetrusted%20US%20Inc,c%3dUS?certificateRevocationList

            X509v3 Subject Key Identifier: 
                FD:84:E3:57:1F:DF:1E:AC:06:43:5E:92:0E:03:3C:29:CD:C3:6E:C5
    Signature Algorithm: sha1WithRSAEncryption
        00:66:6f:36:e6:2a:49:26:97:8b:bb:c6:01:ef:87:3d:24:a0:
        85:f7:6f:af:2d:17:ea:cf:05:f8:10:5a:ae:44:41:08:cc:37:
        3a:5d:6c:f7:c2:9d:aa:d2:e4:37:95:25:0a:20:a5:bb:43:38:
        97:45:ed:cf:57:65:64:03:3c:48:80:1d:30:65:04:85:7f:55:
        8d:fe:cc:8e:f3:80:28:ee:65:40:9d:39:76:0f:07:a5:37:ce:
        0b:d1:a1:bb:6b:8d:b4:96:bb:52:4d:c5:9a:50:13:15:89:90:
        59:f7:c2:21:36:f8:b7:7f:d0:1e:20:35:88:1f:c8:82:db:56:
        15:1e:65:70:9a:55:72:0a:c1:6a:f3:bd:b0:e0:77:f3:aa:76:
        ea:fb:62:8c:c5:ad:8c:5f:70:9d:71:b1:21:50:e9:df:ff:e9:
        b3:a7:29:e1:c6:f0:d6:d0:6a:79:e5:e3:db:ad:02:fa:c2:8b:
        a8:0f:87:ed:c5:76:9f:2e:f8:47:f6:09:bb:64:9b:c6:1f:f7:
        ca:33:9e:e4:ca:09:28:b5:ec:8c:00:7a:14:a5:30:43:cf:48:
        87:90:8b:9f:12:0b:87:5d:ff:51:0c:06:f6:4f:65:37:89:1b:
        ae:4e:56:80:f5:11:db:09:ae:a3:4e:ea:c0:13:0c:45:03:21:
        39:98:f4:75
-----BEGIN CERTIFICATE-----
MIIGeTCCBWGgAwIBAgICDiswDQYJKoZIhvcNAQEFBQAwgYgxCzAJBgNVBAYTAlVT
MRkwFwYDVQQKExBCZXRydXN0ZWQgVVMgSW5jMQwwCgYDVQQLEwNTU1AxJzAlBgNV
BAsTHkJldHJ1c3RlZCBQcm9kdWN0aW9uIFNTUCBDQSBBMTEnMCUGA1UEAxMeQmV0
cnVzdGVkIFByb2R1Y3Rpb24gU1NQIENBIEExMB4XDTA3MDcwNjE2MDcwOFoXDTE3
MDcwNjE2MDUxOFowdzETMBEGCgmSJomT8ixkARkWA2dvdjETMBEGCgmSJomT8ixk
ARkWA2hoczELMAkGA1UEBhMCVVMxGDAWBgNVBAoTD1UuUy4gR292ZXJubWVudDEM
MAoGA1UECxMDSEhTMRYwFAYDVQQDEw1ISFMtU1NQLUNBLUI3MIIBIjANBgkqhkiG
9w0BAQEFAAOCAQ8AMIIBCgKCAQEA8r0yTmRfYEUAG0l/ZN5pEVodSH7mpKAQl+fW
wiLiGZXbBtDq/KWKUlmEIOZv+JY1xbx7I3TyQVIysRZkDRWaC421k/xRIqHt/xnq
kwmHzjERbX3zGxhzsYPEgpC5RQ4Zdz4iqtt7cskTTIdEaAX+1RvM74P2bd8gHVdU
whFwC2QwvV6aHoFoON99qc5rXhaMLY0LGT20gxXl89592swRPUzE/+S/rUGLX2Fv
xHhvUAjLNe99e49u01ojmcSEtxIW3KTIjcVAr4tPPvOoCmNB8E5nyGe2ziaMdsEg
fAd+wHCa6KPgp0ZKpg2dMsVJ8149i8753q/AKbogjFtZVsPSVwIDAQABo4IC+zCC
AvcwDwYDVR0TAQH/BAUwAwEB/zBPBgNVHSAESDBGMAwGCmCGSAFlAwIBAwcwDAYK
YIZIAWUDAgEDCDAMBgpghkgBZQMCAQMNMAwGCmCGSAFlAwIBAxEwDAYKYIZIAWUD
AgEDBjCCATcGCCsGAQUFBwEBBIIBKTCCASUwOgYIKwYBBQUHMAKGLmh0dHA6Ly9h
aWExLnNzcC1zdHJvbmctaWQubmV0L0NBL1NTUC1DQS1BMS5wN2Mwga8GCCsGAQUF
BzAChoGibGRhcDovL2RpcjEuc3NwLXN0cm9uZy1pZC5uZXQvY249QmV0cnVzdGVk
JTIwUHJvZHVjdGlvbiUyMFNTUCUyMENBJTIwQTEsb3U9QmV0cnVzdGVkJTIwUHJv
ZHVjdGlvbiUyMFNTUCUyMENBJTIwQTEsb3U9U1NQLG89QmV0cnVzdGVkJTIwVVMl
MjBJbmMsYz1VUz9jQUNlcnRpZmljYXRlMDUGCCsGAQUFBzABhilodHRwOi8vb2Nz
cDEuc3NwLXN0cm9uZy1pZC5uZXQvU1NQLUNBLUExLzAOBgNVHQ8BAf8EBAMCAcYw
HwYDVR0jBBgwFoAUu6TpuYMLMnIaIQ6qz0UdtxYjyA0wggEGBgNVHR8Egf4wgfsw
NaAzoDGGL2h0dHA6Ly9jZHAxLnNzcC1zdHJvbmctaWQubmV0L0NEUC9TU1AtQ0Et
QTEuY3JsMIHBoIG+oIG7hoG4bGRhcDovL2RpcjEuc3NwLXN0cm9uZy1pZC5uZXQv
Y24lM2RCZXRydXN0ZWQlMjBQcm9kdWN0aW9uJTIwU1NQJTIwQ0ElMjBBMSxvdSUz
ZEJldHJ1c3RlZCUyMFByb2R1Y3Rpb24lMjBTU1AlMjBDQSUyMEExLG91JTNkU1NQ
LG8lM2RCZXRydXN0ZWQlMjBVUyUyMEluYyxjJTNkVVM/Y2VydGlmaWNhdGVSZXZv
Y2F0aW9uTGlzdDAdBgNVHQ4EFgQU/YTjVx/fHqwGQ16SDgM8Kc3DbsUwDQYJKoZI
hvcNAQEFBQADggEBAABmbzbmKkkml4u7xgHvhz0koIX3b68tF+rPBfgQWq5EQQjM
NzpdbPfCnarS5DeVJQogpbtDOJdF7c9XZWQDPEiAHTBlBIV/VY3+zI7zgCjuZUCd
OXYPB6U3zgvRobtrjbSWu1JNxZpQExWJkFn3wiE2+Ld/0B4gNYgfyILbVhUeZXCa
VXIKwWrzvbDgd/Oqdur7YozFrYxfcJ1xsSFQ6d//6bOnKeHG8NbQannl49utAvrC
i6gPh+3Fdp8u+Ef2Cbtkm8Yf98oznuTKCSi17IwAehSlMEPPSIeQi58SC4dd/1EM
BvZPZTeJG65OVoD1EdsJrqNO6sATDEUDITmY9HU=
-----END CERTIFICATE-----
