Certificate:
    Data:
        Version: 3 (0x2)
        Serial Number: 1149245032 (0x44801668)
        Signature Algorithm: sha256WithRSAEncryption
        Issuer: C=US, O=Entrust, OU=Certification Authorities, OU=Entrust Managed Services Root CA
        Validity
            Not Before: Mar  7 17:41:14 2013 GMT
            Not After : May  9 14:02:31 2019 GMT
        Subject: C=US, O=U.S. Government, OU=HHS, OU=Certification Authorities, CN=HHS-FPKI-Intermediate-CA-E1
        Subject Public Key Info:
            Public Key Algorithm: rsaEncryption
                Public-Key: (2048 bit)
                Modulus:
                    00:98:f7:a9:a6:98:f7:11:e8:a7:00:c2:4e:4b:63:
                    08:83:01:4b:2f:dc:66:05:c9:6c:16:4a:76:61:ff:
                    03:dc:37:da:9d:2c:e7:89:5b:da:da:8e:44:1d:f5:
                    fe:ed:e5:d4:fe:2c:00:b3:46:d2:83:45:d1:c6:f4:
                    79:7c:a2:da:01:ac:c1:fa:e4:f2:0d:27:f8:1c:1b:
                    3b:3f:da:a1:6a:fa:2c:33:44:e7:44:1f:c8:b7:c6:
                    00:f4:39:b6:6f:5a:de:7c:7d:de:50:5b:59:cf:54:
                    a5:73:83:ae:20:b3:e6:d5:b3:e0:1e:7b:68:11:ae:
                    62:f9:b8:3f:5d:5e:17:0a:94:f4:b3:f0:ee:73:1a:
                    ea:47:16:aa:16:a8:5e:77:c2:a2:f5:8c:bd:0f:e4:
                    41:d3:2b:b1:1f:32:92:07:51:da:16:52:9e:88:cd:
                    d0:8b:c4:91:80:50:fb:08:30:26:34:44:a0:17:c0:
                    db:a1:4c:62:0f:e6:af:ac:d9:ff:b4:52:90:2c:28:
                    66:7b:b3:8e:a4:83:7e:b5:f3:f8:59:4f:19:01:c9:
                    a4:d0:fa:ee:bc:5a:c0:4b:37:23:a8:a3:8e:10:fd:
                    4f:b3:e5:73:ca:18:b7:d1:63:4a:92:32:f7:0c:01:
                    49:1f:5f:e7:1f:a7:03:da:42:c5:38:52:fc:53:aa:
                    c4:11
                Exponent: 65537 (0x10001)
        X509v3 extensions:
            X509v3 Key Usage: critical
                Certificate Sign, CRL Sign
            X509v3 Certificate Policies: 
                Policy: 2.16.840.1.101.3.2.1.3.6
                Policy: 2.16.840.1.101.3.2.1.3.7
                Policy: 2.16.840.1.101.3.2.1.3.8
                Policy: 2.16.840.1.101.3.2.1.3.13
                Policy: 2.16.840.1.101.3.2.1.3.17

            X509v3 Basic Constraints: critical
                CA:TRUE, pathlen:0
            Authority Information Access: 
                CA Issuers - URI:http://rootweb.managed.entrust.com/AIA/CertsIssuedToEMSRootCA.p7c
                OCSP - URI:http://ocsp.managed.entrust.com/OCSP/EMSRootCAResponder

            X509v3 CRL Distribution Points: 

                Full Name:
                  URI:http://rootweb.managed.entrust.com/CRLs/EMSRootCA1.crl

                Full Name:
                  DirName: C = US, O = Entrust, OU = Certification Authorities, OU = Entrust Managed Services Root CA, CN = CRL1

            X509v3 Authority Key Identifier: 
                keyid:9C:62:66:26:9D:71:B6:A7:75:53:64:E1:AC:B1:C7:25:3C:44:5D:0D

            X509v3 Subject Key Identifier: 
                4D:D5:AA:26:9E:0E:48:BE:E5:46:2C:F8:E1:00:74:08:FA:F6:43:44
    Signature Algorithm: sha256WithRSAEncryption
        b2:a1:3b:08:ab:2f:04:82:b9:bf:f1:f7:ab:39:68:81:9f:23:
        76:f6:31:f3:b1:27:ee:3e:cc:61:0d:f2:7f:29:60:0f:e5:8d:
        b4:0e:43:28:df:99:b8:a9:16:3c:03:f0:25:de:36:8b:d9:f8:
        e7:15:51:45:41:48:6a:09:48:73:d8:ad:be:b4:7c:88:f0:35:
        b1:0c:98:2a:26:c1:23:86:c7:0d:ed:c4:a5:90:ef:ea:d3:9b:
        8b:b2:09:a3:1f:f0:b1:49:30:ca:02:6b:79:29:64:5b:49:b9:
        df:9e:1f:88:41:cb:9f:a6:a0:4d:5a:13:48:ff:42:94:40:a1:
        1a:ae:8b:3b:03:89:d0:9c:e0:c1:95:0f:61:87:e9:fd:b0:1b:
        ef:ec:f2:89:91:f9:aa:a8:76:73:49:be:f4:7f:42:8a:31:35:
        bc:9a:19:43:7f:39:05:83:c8:b7:b6:e4:0c:38:12:9e:57:9e:
        77:f3:bb:57:76:42:e6:ae:e8:a5:f8:ff:0f:37:ad:af:a7:d9:
        d1:65:44:40:3b:85:5c:2e:73:7a:98:a6:9c:41:7d:6b:c6:76:
        c1:96:14:45:c2:33:91:01:71:9d:43:7c:fa:08:15:1f:4e:f7:
        e6:45:2e:59:87:65:59:fa:fc:fe:fe:f6:dd:ed:62:70:d4:a2:
        ac:5c:31:ce
-----BEGIN CERTIFICATE-----
MIIFozCCBIugAwIBAgIERIAWaDANBgkqhkiG9w0BAQsFADBuMQswCQYDVQQGEwJV
UzEQMA4GA1UEChMHRW50cnVzdDEiMCAGA1UECxMZQ2VydGlmaWNhdGlvbiBBdXRo
b3JpdGllczEpMCcGA1UECxMgRW50cnVzdCBNYW5hZ2VkIFNlcnZpY2VzIFJvb3Qg
Q0EwHhcNMTMwMzA3MTc0MTE0WhcNMTkwNTA5MTQwMjMxWjB/MQswCQYDVQQGEwJV
UzEYMBYGA1UEChMPVS5TLiBHb3Zlcm5tZW50MQwwCgYDVQQLEwNISFMxIjAgBgNV
BAsTGUNlcnRpZmljYXRpb24gQXV0aG9yaXRpZXMxJDAiBgNVBAMTG0hIUy1GUEtJ
LUludGVybWVkaWF0ZS1DQS1FMTCCASIwDQYJKoZIhvcNAQEBBQADggEPADCCAQoC
ggEBAJj3qaaY9xHopwDCTktjCIMBSy/cZgXJbBZKdmH/A9w32p0s54lb2tqORB31
/u3l1P4sALNG0oNF0cb0eXyi2gGswfrk8g0n+BwbOz/aoWr6LDNE50QfyLfGAPQ5
tm9a3nx93lBbWc9UpXODriCz5tWz4B57aBGuYvm4P11eFwqU9LPw7nMa6kcWqhao
XnfCovWMvQ/kQdMrsR8ykgdR2hZSnojN0IvEkYBQ+wgwJjREoBfA26FMYg/mr6zZ
/7RSkCwoZnuzjqSDfrXz+FlPGQHJpND67rxawEs3I6ijjhD9T7Plc8oYt9FjSpIy
9wwBSR9f5x+nA9pCxThS/FOqxBECAwEAAaOCAjYwggIyMA4GA1UdDwEB/wQEAwIB
BjBPBgNVHSAESDBGMAwGCmCGSAFlAwIBAwYwDAYKYIZIAWUDAgEDBzAMBgpghkgB
ZQMCAQMIMAwGCmCGSAFlAwIBAw0wDAYKYIZIAWUDAgEDETASBgNVHRMBAf8ECDAG
AQH/AgEAMIGkBggrBgEFBQcBAQSBlzCBlDBNBggrBgEFBQcwAoZBaHR0cDovL3Jv
b3R3ZWIubWFuYWdlZC5lbnRydXN0LmNvbS9BSUEvQ2VydHNJc3N1ZWRUb0VNU1Jv
b3RDQS5wN2MwQwYIKwYBBQUHMAGGN2h0dHA6Ly9vY3NwLm1hbmFnZWQuZW50cnVz
dC5jb20vT0NTUC9FTVNSb290Q0FSZXNwb25kZXIwgdMGA1UdHwSByzCByDA8oDqg
OIY2aHR0cDovL3Jvb3R3ZWIubWFuYWdlZC5lbnRydXN0LmNvbS9DUkxzL0VNU1Jv
b3RDQTEuY3JsMIGHoIGEoIGBpH8wfTELMAkGA1UEBhMCVVMxEDAOBgNVBAoTB0Vu
dHJ1c3QxIjAgBgNVBAsTGUNlcnRpZmljYXRpb24gQXV0aG9yaXRpZXMxKTAnBgNV
BAsTIEVudHJ1c3QgTWFuYWdlZCBTZXJ2aWNlcyBSb290IENBMQ0wCwYDVQQDEwRD
UkwxMB8GA1UdIwQYMBaAFJxiZiadcbandVNk4ayxxyU8RF0NMB0GA1UdDgQWBBRN
1aomng5IvuVGLPjhAHQI+vZDRDANBgkqhkiG9w0BAQsFAAOCAQEAsqE7CKsvBIK5
v/H3qzlogZ8jdvYx87En7j7MYQ3yfylgD+WNtA5DKN+ZuKkWPAPwJd42i9n45xVR
RUFIaglIc9itvrR8iPA1sQyYKibBI4bHDe3EpZDv6tObi7IJox/wsUkwygJreSlk
W0m5354fiEHLn6agTVoTSP9ClEChGq6LOwOJ0JzgwZUPYYfp/bAb7+zyiZH5qqh2
c0m+9H9CijE1vJoZQ385BYPIt7bkDDgSnleed/O7V3ZC5q7opfj/Dzetr6fZ0WVE
QDuFXC5zepimnEF9a8Z2wZYURcIzkQFxnUN8+ggVH0735kUuWYdlWfr8/v723e1i
cNSirFwxzg==
-----END CERTIFICATE-----
