Certificate:
    Data:
        Version: 3 (0x2)
        Serial Number:
            27:20:41:0c:5b:08:69:80:42:62:4f:13:bd:16:06:6a
        Signature Algorithm: sha1WithRSAEncryption
        Issuer: DC=gov, DC=hhs, O=U.S. Government, CN=HHS Domain Device Root CA
        Validity
            Not Before: Dec 15 14:55:11 2006 GMT
            Not After : Jun 25 21:46:34 2027 GMT
        Subject: DC=gov, DC=hhs, O=U.S. Government, CN=HHS Domain Device Root CA
        Subject Public Key Info:
            Public Key Algorithm: rsaEncryption
                Public-Key: (4096 bit)
                Modulus:
                    00:c5:22:bc:31:cd:b2:54:f8:8d:74:ce:07:31:3d:
                    47:6d:cc:01:31:f2:fa:6c:cd:6b:b7:71:21:ba:5d:
                    43:0c:a7:51:66:fe:20:ed:3c:63:26:db:53:de:56:
                    32:a8:01:16:24:7c:36:92:2a:a4:a2:7c:dd:6e:c0:
                    68:c3:28:7c:b3:3d:0e:ab:5d:20:ff:9c:1c:0b:96:
                    94:db:99:00:ff:ff:d2:c9:93:22:bb:29:e7:e6:a9:
                    7d:c5:99:ea:fe:b4:37:36:bf:ce:a2:3c:6c:47:0c:
                    50:af:e8:15:67:cf:2b:22:e8:f9:67:ed:35:3d:76:
                    d8:6e:a9:66:9b:5e:91:32:34:46:21:31:27:38:ea:
                    3b:16:c1:d3:76:94:5b:8a:7c:63:7c:1b:ca:48:9b:
                    55:7a:09:1e:79:60:43:f3:b1:7b:75:7c:b0:07:86:
                    36:90:75:7d:d1:fe:ed:48:60:aa:bb:7f:0c:3a:d5:
                    18:ab:15:57:e7:25:fa:eb:f9:22:02:2d:15:64:5c:
                    bb:a0:5b:f0:57:5b:2b:62:5b:53:03:d7:82:cb:21:
                    2c:c5:96:04:29:2b:4b:74:e1:f9:4b:e4:b7:b3:b0:
                    f0:17:eb:48:37:13:f2:d4:48:97:70:54:42:5f:3a:
                    f9:5a:9f:b0:6d:f5:22:b7:dc:59:54:e8:4f:dd:c2:
                    7b:93:42:b5:62:6f:e2:be:78:4a:71:d0:12:b7:8a:
                    df:77:ec:e4:92:21:5c:81:5e:26:b4:41:cf:60:6e:
                    4d:be:eb:89:50:f4:83:ba:0d:07:27:35:7a:36:5d:
                    da:22:63:ae:88:1b:99:6e:d8:48:26:9c:11:3b:e4:
                    71:ed:14:92:b0:78:e1:35:82:87:42:0a:6a:29:3d:
                    26:17:f5:b1:02:61:e6:10:86:bc:ff:d3:15:d1:36:
                    a7:d5:0f:30:69:98:94:f6:7c:e3:c5:28:cc:d2:4e:
                    9e:dd:8e:ac:5c:7e:a4:ec:84:48:a2:ad:00:f1:97:
                    d1:f4:d1:93:0b:43:1c:47:53:12:cd:11:a9:4a:c6:
                    5e:54:86:64:3f:60:20:7f:47:56:54:f9:14:d0:9f:
                    6e:3d:61:d5:28:71:ef:3f:8f:c7:bb:b1:44:29:72:
                    50:0b:d8:0c:41:c6:ab:dd:6d:2f:a3:e5:54:8d:ca:
                    bc:9e:29:95:40:25:4b:6a:b9:88:a4:d4:33:29:b1:
                    71:08:73:a9:5b:39:fc:b5:a3:63:41:b7:38:8e:61:
                    8e:e0:c2:d7:d2:d1:29:08:88:9d:a6:3e:7b:37:6f:
                    1b:7d:65:96:19:60:65:2a:12:42:6c:bc:14:1a:3c:
                    73:de:15:2a:6b:32:d9:9e:1f:df:c6:93:97:33:ff:
                    af:cc:d3
                Exponent: 65537 (0x10001)
        X509v3 extensions:
            X509v3 Key Usage: critical
                Certificate Sign, CRL Sign
            X509v3 Basic Constraints: critical
                CA:TRUE
            X509v3 Subject Key Identifier: 
                36:2A:B0:5D:1D:70:EB:50:72:35:C9:9C:D4:9E:6E:E6:29:EA:52:EE
            1.3.6.1.4.1.311.21.1: 
                ...
            1.3.6.1.4.1.311.21.2: 
                ....0ua._:..Wo.......u
            X509v3 Certificate Policies: 
                Policy: 2.16.840.1.101.3.2.1.3.8.1
                  CPS: http://www.hhs.gov/ocio/esolutions/hhsppa/HHS_PKI_Policy_Authority_CW.htm

    Signature Algorithm: sha1WithRSAEncryption
        57:81:5d:d0:0e:5d:1a:2e:83:ec:05:70:61:66:4d:5c:95:52:
        3c:b9:6b:7d:50:f0:cb:19:5f:85:a9:49:01:67:a8:42:1e:e8:
        79:04:5a:1e:df:a3:06:85:81:f6:5f:ae:58:4d:85:c3:33:d9:
        d6:ea:6c:2e:b8:d0:c5:e6:93:95:6d:6f:4d:47:22:4b:f3:00:
        8f:39:a2:4e:05:e5:69:e5:23:41:9b:6b:d8:93:a2:ac:72:ee:
        4a:d1:4f:ce:89:7b:cd:f8:8a:41:f2:e9:80:ed:a7:65:ec:be:
        de:24:bf:9d:a9:5a:16:6d:95:69:fd:9f:93:23:4e:f8:8f:75:
        a3:1f:70:22:7a:65:88:36:8d:82:33:b3:a0:30:03:07:0f:e9:
        d2:82:fa:9e:0f:1c:7b:7a:74:08:41:bc:02:36:8f:9f:f9:42:
        2b:16:43:64:81:b4:2b:c0:8f:3b:66:4c:68:e0:ca:23:59:5d:
        0b:3b:43:e9:13:a4:00:42:14:3f:1f:7b:28:63:2c:ff:60:b8:
        6a:17:ec:63:aa:c4:39:07:58:56:f3:90:2c:88:9b:ed:9a:3f:
        b9:15:b2:60:c5:b8:ca:f1:dc:2c:eb:f4:28:b7:9e:8b:e7:13:
        6a:6b:c5:42:52:fe:a3:da:de:8d:0d:2c:0b:87:04:25:5c:51:
        26:28:70:70:6a:cb:04:14:fb:53:3b:ff:28:cb:45:83:ec:4d:
        5d:f3:65:ca:25:71:d9:41:6b:b1:d3:31:57:a6:4c:6f:b9:08:
        65:52:8d:38:18:f8:17:15:0f:ec:73:2f:41:42:3b:5b:b8:e3:
        0b:0e:11:60:6d:c4:ef:ae:3f:b4:7d:15:4d:4f:b6:cf:df:d4:
        1b:3c:98:3e:68:3f:89:55:d5:30:94:25:8a:57:a6:cc:06:4a:
        ae:62:0c:0b:e0:48:3c:d6:02:9b:be:d9:85:e7:21:67:0e:dc:
        e1:2e:e3:9e:1d:53:ec:47:94:a2:0f:0c:84:31:53:50:8f:f6:
        02:49:e1:d6:7e:d9:67:18:6a:3b:94:2d:f3:dd:76:4a:06:c4:
        93:bb:0a:04:32:31:08:ba:9b:8a:c9:c5:70:c5:73:61:c6:cf:
        6d:58:18:43:b7:6f:7b:79:d4:ed:a9:24:d6:fb:9f:93:43:49:
        78:40:ea:0b:84:ec:07:2a:70:92:af:0a:30:71:f6:fe:ac:13:
        35:21:0a:19:8c:e8:a1:3f:45:64:a7:b2:28:dc:fa:cd:e8:d4:
        9a:50:39:c6:42:41:74:15:01:5c:07:55:24:1d:32:e7:1d:28:
        08:af:52:fa:d3:f0:b1:a8:db:5f:4d:25:13:be:45:2d:79:3a:
        62:f5:ac:ec:98:b8:ef:1e
-----BEGIN CERTIFICATE-----
MIIGSDCCBDCgAwIBAgIQJyBBDFsIaYBCYk8TvRYGajANBgkqhkiG9w0BAQUFADBo
MRMwEQYKCZImiZPyLGQBGRMDZ292MRMwEQYKCZImiZPyLGQBGRMDaGhzMRgwFgYD
VQQKEw9VLlMuIEdvdmVybm1lbnQxIjAgBgNVBAMTGUhIUyBEb21haW4gRGV2aWNl
IFJvb3QgQ0EwHhcNMDYxMjE1MTQ1NTExWhcNMjcwNjI1MjE0NjM0WjBoMRMwEQYK
CZImiZPyLGQBGRMDZ292MRMwEQYKCZImiZPyLGQBGRMDaGhzMRgwFgYDVQQKEw9V
LlMuIEdvdmVybm1lbnQxIjAgBgNVBAMTGUhIUyBEb21haW4gRGV2aWNlIFJvb3Qg
Q0EwggIiMA0GCSqGSIb3DQEBAQUAA4ICDwAwggIKAoICAQDFIrwxzbJU+I10zgcx
PUdtzAEx8vpszWu3cSG6XUMMp1Fm/iDtPGMm21PeVjKoARYkfDaSKqSifN1uwGjD
KHyzPQ6rXSD/nBwLlpTbmQD//9LJkyK7KefmqX3Fmer+tDc2v86iPGxHDFCv6BVn
zysi6Pln7TU9dthuqWabXpEyNEYhMSc46jsWwdN2lFuKfGN8G8pIm1V6CR55YEPz
sXt1fLAHhjaQdX3R/u1IYKq7fww61RirFVfnJfrr+SICLRVkXLugW/BXWytiW1MD
14LLISzFlgQpK0t04flL5LezsPAX60g3E/LUSJdwVEJfOvlan7Bt9SK33FlU6E/d
wnuTQrVib+K+eEpx0BK3it937OSSIVyBXia0Qc9gbk2+64lQ9IO6DQcnNXo2Xdoi
Y66IG5lu2EgmnBE75HHtFJKweOE1godCCmopPSYX9bECYeYQhrz/0xXRNqfVDzBp
mJT2fOPFKMzSTp7djqxcfqTshEiirQDxl9H00ZMLQxxHUxLNEalKxl5UhmQ/YCB/
R1ZU+RTQn249YdUoce8/j8e7sUQpclAL2AxBxqvdbS+j5VSNyryeKZVAJUtquYik
1DMpsXEIc6lbOfy1o2NBtziOYY7gwtfS0SkIiJ2mPns3bxt9ZZYZYGUqEkJsvBQa
PHPeFSprMtmeH9/Gk5cz/6/M0wIDAQABo4HtMIHqMA4GA1UdDwEB/wQEAwIBBjAP
BgNVHRMBAf8EBTADAQH/MB0GA1UdDgQWBBQ2KrBdHXDrUHI1yZzUnm7mKepS7jAQ
BgkrBgEEAYI3FQEEAwIBATAjBgkrBgEEAYI3FQIEFgQU1gIwdWGxXzocvVdv2/gM
gNTI/3UwcQYDVR0gBGowaDBmBgtghkgBZQMCAQMIATBXMFUGCCsGAQUFBwIBFklo
dHRwOi8vd3d3Lmhocy5nb3Yvb2Npby9lc29sdXRpb25zL2hoc3BwYS9ISFNfUEtJ
X1BvbGljeV9BdXRob3JpdHlfQ1cuaHRtMA0GCSqGSIb3DQEBBQUAA4ICAQBXgV3Q
Dl0aLoPsBXBhZk1clVI8uWt9UPDLGV+FqUkBZ6hCHuh5BFoe36MGhYH2X65YTYXD
M9nW6mwuuNDF5pOVbW9NRyJL8wCPOaJOBeVp5SNBm2vYk6Kscu5K0U/OiXvN+IpB
8umA7adl7L7eJL+dqVoWbZVp/Z+TI074j3WjH3AiemWINo2CM7OgMAMHD+nSgvqe
Dxx7enQIQbwCNo+f+UIrFkNkgbQrwI87Zkxo4MojWV0LO0PpE6QAQhQ/H3soYyz/
YLhqF+xjqsQ5B1hW85AsiJvtmj+5FbJgxbjK8dws6/Qot56L5xNqa8VCUv6j2t6N
DSwLhwQlXFEmKHBwassEFPtTO/8oy0WD7E1d82XKJXHZQWux0zFXpkxvuQhlUo04
GPgXFQ/scy9BQjtbuOMLDhFgbcTvrj+0fRVNT7bP39QbPJg+aD+JVdUwlCWKV6bM
BkquYgwL4Eg81gKbvtmF5yFnDtzhLuOeHVPsR5SiDwyEMVNQj/YCSeHWftlnGGo7
lC3z3XZKBsSTuwoEMjEIupuKycVwxXNhxs9tWBhDt297edTtqSTW+5+TQ0l4QOoL
hOwHKnCSrwowcfb+rBM1IQoZjOihP0Vkp7Io3PrN6NSaUDnGQkF0FQFcB1UkHTLn
HSgIr1L60/CxqNtfTSUTvkUteTpi9azsmLjvHg==
-----END CERTIFICATE-----
