Certificate:
    Data:
        Version: 3 (0x2)
        Serial Number:
            61:1b:ed:d7:00:01:00:00:00:09
        Signature Algorithm: sha1WithRSAEncryption
        Issuer: DC=gov, DC=hhs, O=U.S. Government, CN=HHS Domain Device Root CA
        Validity
            Not Before: Jun  5 14:43:26 2009 GMT
            Not After : Jun  5 14:53:26 2014 GMT
        Subject: DC=LOCAL, DC=DHHSSECURITY, CN=NIH-DEVICE-SUBCA
        Subject Public Key Info:
            Public Key Algorithm: rsaEncryption
                Public-Key: (2048 bit)
                Modulus:
                    00:c8:e6:3b:0d:a7:d6:48:1b:4d:52:e5:f1:42:4b:
                    30:6d:58:66:05:d6:89:53:7c:a6:f5:4c:c1:9c:3c:
                    1c:51:29:23:be:f3:16:8a:fa:f5:90:1f:8d:df:22:
                    8c:91:ef:c0:41:9c:14:fa:94:1a:fc:57:5a:ec:be:
                    e1:3c:eb:2e:1e:c9:8b:fb:9b:bc:77:c8:a6:98:f7:
                    31:75:fe:da:5e:fb:b2:f0:22:e7:d0:63:e4:97:0c:
                    c4:70:30:d5:e8:96:87:3a:49:39:21:1b:5b:0d:c8:
                    e2:1e:e9:bd:70:96:29:62:cd:d6:ca:8a:0a:5a:d9:
                    69:42:f2:ea:04:3b:7b:42:ad:5c:75:0e:2f:77:ce:
                    fb:63:ee:24:ea:0d:d8:20:4d:ce:49:5e:d3:65:a4:
                    52:38:bb:cb:cb:1b:82:39:72:0c:5b:93:89:c9:19:
                    fd:68:37:5a:63:b6:d2:c8:4b:94:3a:54:72:7d:3c:
                    d6:4d:34:8f:f6:6b:6e:64:58:35:a9:62:c0:13:34:
                    c2:d5:57:67:5b:77:d7:d7:5e:c7:e2:d0:1e:da:4f:
                    76:b6:cb:4c:b0:77:3c:38:9e:3f:79:8b:f0:a2:33:
                    90:7a:44:54:49:81:88:4a:99:e1:23:23:0e:0c:9a:
                    8e:57:6f:8b:6e:f3:d6:d3:21:69:88:df:94:5f:e6:
                    ce:45
                Exponent: 65537 (0x10001)
        X509v3 extensions:
            X509v3 Basic Constraints: critical
                CA:TRUE
            X509v3 Subject Key Identifier: 
                43:36:6C:55:ED:D2:66:2E:C1:18:C0:4B:EA:39:B4:6E:C6:DA:D2:1A
            X509v3 Key Usage: 
                Digital Signature, Certificate Sign, CRL Sign
            1.3.6.1.4.1.311.21.1: 
                ...
            X509v3 Certificate Policies: 
                Policy: 2.16.840.1.101.3.2.1.13.5
                Policy: 2.16.840.1.101.3.2.1.13.5.1.2

            1.3.6.1.4.1.311.20.2: 
                .
.S.u.b.C.A
            X509v3 Authority Key Identifier: 
                keyid:36:2A:B0:5D:1D:70:EB:50:72:35:C9:9C:D4:9E:6E:E6:29:EA:52:EE

            X509v3 CRL Distribution Points: 

                Full Name:
                  URI:http://www.hhs.gov/ocio/esolutions/hhsidentity/hhs_domain_device_root_ca_crl.crl

            Authority Information Access: 
                CA Issuers - URI:http://www.hhs.gov/ocio/esolutions/hhsidentity/hhs_domain_device_ca.cer

    Signature Algorithm: sha1WithRSAEncryption
        93:fc:10:ab:1e:d3:8a:02:25:ba:69:d7:7b:42:27:63:ef:a0:
        4e:fe:f0:4d:94:aa:c7:05:10:79:34:b1:bc:2b:4e:cc:f1:2d:
        30:8d:c5:3e:fa:5d:92:15:a3:7b:fe:b2:be:af:2b:52:bb:f9:
        7a:42:a7:0e:11:43:06:1f:42:c9:cb:54:a3:4c:72:e5:8c:f6:
        6a:04:0d:53:7e:55:d5:47:ef:8b:26:9b:f1:22:36:b9:71:04:
        85:41:73:5d:d4:f1:ab:08:b6:57:a0:26:87:c2:ec:53:d1:b7:
        04:f8:03:0d:df:f2:6b:15:71:7f:20:67:a3:3d:81:0e:77:22:
        7b:74:a1:c6:bd:e8:cc:81:ed:41:03:42:00:9f:f9:fd:2b:e7:
        83:00:17:69:bb:ac:b5:96:93:fb:33:b9:54:7a:00:fe:5a:8d:
        40:be:d7:d5:be:d8:8f:e8:57:14:62:42:b1:47:a5:46:62:6d:
        cb:79:fc:76:ca:09:b7:d8:1a:b8:fa:1e:cf:a4:26:0d:23:27:
        0a:c3:f2:ae:16:59:66:e8:54:57:42:46:dd:e1:8b:ed:f8:b5:
        f7:45:9e:7d:2e:2e:32:9a:41:8b:80:bd:3d:b7:8a:30:cb:db:
        53:4d:8b:e0:67:cf:3b:f1:0e:90:f6:ed:88:3e:e1:dd:77:8f:
        b2:1f:8a:ce:03:0d:bd:58:57:fc:21:3f:4e:9a:ad:39:0b:0c:
        fa:c4:ab:e8:e9:00:38:70:21:a5:e4:0f:1c:4f:19:c0:60:6c:
        c2:5c:fd:f3:8b:f4:cf:0a:26:23:b4:26:fb:82:00:a3:1f:fc:
        bc:0b:4d:6f:18:30:1b:48:03:d4:98:9c:fd:3f:94:8f:97:07:
        e0:f6:0a:e5:05:ea:04:21:f9:8d:42:99:6f:af:0a:2b:94:64:
        cc:9f:95:4d:cc:b6:ca:79:95:34:5b:27:13:1c:e1:e0:a2:3a:
        d4:23:62:dc:4a:36:3d:2c:47:df:ac:e6:5d:57:d1:6e:b0:17:
        7f:ea:1b:46:52:00:fa:bb:2b:6f:70:f1:ed:9d:3e:a6:92:b9:
        86:b7:cc:70:75:0d:b5:d3:ac:1a:91:47:86:f1:4a:0f:eb:26:
        fd:d8:7d:3e:ad:6b:28:6a:74:e7:a1:a7:33:13:80:00:a8:64:
        ac:dd:d5:07:8a:8b:ee:f4:06:4a:26:d1:22:d1:1e:e0:72:4a:
        a9:d0:4d:12:bf:2d:40:83:0c:e4:c1:8e:08:00:31:f7:a3:ea:
        79:e1:6a:42:d3:73:7e:8a:b8:be:18:58:6e:ef:bb:20:2a:8e:
        5e:06:04:f3:1c:3c:00:08:5b:05:0f:21:f4:ee:79:ca:ec:1b:
        ce:e0:42:ad:4c:c3:9d:12
-----BEGIN CERTIFICATE-----
MIIFvjCCA6agAwIBAgIKYRvt1wABAAAACTANBgkqhkiG9w0BAQUFADBoMRMwEQYK
CZImiZPyLGQBGRMDZ292MRMwEQYKCZImiZPyLGQBGRMDaGhzMRgwFgYDVQQKEw9V
LlMuIEdvdmVybm1lbnQxIjAgBgNVBAMTGUhIUyBEb21haW4gRGV2aWNlIFJvb3Qg
Q0EwHhcNMDkwNjA1MTQ0MzI2WhcNMTQwNjA1MTQ1MzI2WjBQMRUwEwYKCZImiZPy
LGQBGRYFTE9DQUwxHDAaBgoJkiaJk/IsZAEZFgxESEhTU0VDVVJJVFkxGTAXBgNV
BAMTEE5JSC1ERVZJQ0UtU1VCQ0EwggEiMA0GCSqGSIb3DQEBAQUAA4IBDwAwggEK
AoIBAQDI5jsNp9ZIG01S5fFCSzBtWGYF1olTfKb1TMGcPBxRKSO+8xaK+vWQH43f
IoyR78BBnBT6lBr8V1rsvuE86y4eyYv7m7x3yKaY9zF1/tpe+7LwIufQY+SXDMRw
MNXoloc6STkhG1sNyOIe6b1wlilizdbKigpa2WlC8uoEO3tCrVx1Di93zvtj7iTq
DdggTc5JXtNlpFI4u8vLG4I5cgxbk4nJGf1oN1pjttLIS5Q6VHJ9PNZNNI/2a25k
WDWpYsATNMLVV2dbd9fXXsfi0B7aT3a2y0ywdzw4nj95i/CiM5B6RFRJgYhKmeEj
Iw4Mmo5Xb4tu89bTIWmI35Rf5s5FAgMBAAGjggGAMIIBfDAPBgNVHRMBAf8EBTAD
AQH/MB0GA1UdDgQWBBRDNmxV7dJmLsEYwEvqObRuxtrSGjALBgNVHQ8EBAMCAYYw
EAYJKwYBBAGCNxUBBAMCAQAwJwYDVR0gBCAwHjAMBgpghkgBZQMCAQ0FMA4GDGCG
SAFlAwIBDQUBAjAZBgkrBgEEAYI3FAIEDB4KAFMAdQBiAEMAQTAfBgNVHSMEGDAW
gBQ2KrBdHXDrUHI1yZzUnm7mKepS7jBhBgNVHR8EWjBYMFagVKBShlBodHRwOi8v
d3d3Lmhocy5nb3Yvb2Npby9lc29sdXRpb25zL2hoc2lkZW50aXR5L2hoc19kb21h
aW5fZGV2aWNlX3Jvb3RfY2FfY3JsLmNybDBjBggrBgEFBQcBAQRXMFUwUwYIKwYB
BQUHMAKGR2h0dHA6Ly93d3cuaGhzLmdvdi9vY2lvL2Vzb2x1dGlvbnMvaGhzaWRl
bnRpdHkvaGhzX2RvbWFpbl9kZXZpY2VfY2EuY2VyMA0GCSqGSIb3DQEBBQUAA4IC
AQCT/BCrHtOKAiW6add7Qidj76BO/vBNlKrHBRB5NLG8K07M8S0wjcU++l2SFaN7
/rK+rytSu/l6QqcOEUMGH0LJy1SjTHLljPZqBA1TflXVR++LJpvxIja5cQSFQXNd
1PGrCLZXoCaHwuxT0bcE+AMN3/JrFXF/IGejPYEOdyJ7dKHGvejMge1BA0IAn/n9
K+eDABdpu6y1lpP7M7lUegD+Wo1AvtfVvtiP6FcUYkKxR6VGYm3Lefx2ygm32Bq4
+h7PpCYNIycKw/KuFllm6FRXQkbd4Yvt+LX3RZ59Li4ymkGLgL09t4owy9tTTYvg
Z8878Q6Q9u2IPuHdd4+yH4rOAw29WFf8IT9Omq05Cwz6xKvo6QA4cCGl5A8cTxnA
YGzCXP3zi/TPCiYjtCb7ggCjH/y8C01vGDAbSAPUmJz9P5SPlwfg9grlBeoEIfmN
QplvrworlGTMn5VNzLbKeZU0WycTHOHgojrUI2LcSjY9LEffrOZdV9FusBd/6htG
UgD6uytvcPHtnT6mkrmGt8xwdQ2106wakUeG8UoP6yb92H0+rWsoanTnoaczE4AA
qGSs3dUHiovu9AZKJtEi0R7gckqp0E0Svy1AgwzkwY4IADH3o+p54WpC03N+iri+
GFhu77sgKo5eBgTzHDwACFsFDyH07nnK7BvO4EKtTMOdEg==
-----END CERTIFICATE-----
